target datalayout = "e-m:e-p270:32:32-p271:32:32-p272:64:64-i64:64-i128:128-f80:128-n8:16:32:64-S128"
target triple = "x86_64-pc-linux-gnu"

%struct.SResource = type { ptr, i8, i8, i32, i32, i32, i32, i32, ptr, %struct.UString }
%struct.UString = type { ptr, i32, i32 }
%struct.SRBRoot = type { ptr, ptr, i32, i32, i8, i8, i8, ptr, ptr, i32, i32, i32, i32, i32, %"class.icu_77::UnicodeString", i32, ptr, i32, i32, i32, ptr }
%"class.icu_77::UnicodeString" = type { %"class.icu_77::Replaceable", %"union.icu_77::UnicodeString::StackBufferOrFields" }
%"class.icu_77::Replaceable" = type { %"class.icu_77::UObject" }
%"class.icu_77::UObject" = type { ptr }
%"union.icu_77::UnicodeString::StackBufferOrFields" = type { %struct.anon.0, [32 x i8] }
%struct.anon.0 = type { i16, i32, i32, ptr }
%"class.icu_77::ConstChar16Ptr" = type { ptr }
%class.StringBaseResource = type { %struct.SResource, %"class.icu_77::UnicodeString" }

; Function Attrs: inlinehint mustprogress nounwind uwtable
define internal noundef signext i8 @_ZL9U_SUCCESS10UErrorCode(i32 noundef %0) #9 {
  %2 = alloca i32, align 4
  store i32 %0, ptr %2, align 4, !tbaa !45
  %3 = load i32, ptr %2, align 4, !tbaa !45
  %4 = icmp sle i32 %3, 0
  %5 = zext i1 %4 to i8
  ret i8 %5
}

; Function Attrs: mustprogress uwtable
define dso_local noundef i32 @_ZN7SRBRoot11addKeyBytesEPKciR10UErrorCode(ptr noundef nonnull align 8 dereferenceable(176) %0, ptr noundef %1, i32 noundef %2, ptr noundef nonnull align 4 dereferenceable(4) %3) #5 align 2 {
  %5 = alloca i32, align 4
  %6 = alloca ptr, align 8
  %7 = alloca ptr, align 8
  %8 = alloca i32, align 4
  %9 = alloca ptr, align 8
  %10 = alloca i32, align 4
  %11 = alloca i32, align 4
  store ptr %0, ptr %6, align 8, !tbaa !39
  store ptr %1, ptr %7, align 8, !tbaa !41
  store i32 %2, ptr %8, align 4, !tbaa !23
  store ptr %3, ptr %9, align 8, !tbaa !44
  %12 = load ptr, ptr %6, align 8
  call void @llvm.lifetime.start.p0(i64 4, ptr %10) #3
  %13 = load ptr, ptr %9, align 8, !tbaa !44
  %14 = load i32, ptr %13, align 4, !tbaa !45
  %15 = call noundef signext i8 @_ZL9U_FAILURE10UErrorCode(i32 noundef %14)
  %16 = icmp ne i8 %15, 0
  br i1 %16, label %17, label %18

17:                                               ; preds = %4
  store i32 -1, ptr %5, align 4
  store i32 1, ptr %11, align 4
  br label %77

18:                                               ; preds = %4
  %19 = load i32, ptr %8, align 4, !tbaa !23
  %20 = icmp slt i32 %19, 0
  br i1 %20, label %27, label %21

21:                                               ; preds = %18
  %22 = load ptr, ptr %7, align 8, !tbaa !41
  %23 = icmp eq ptr %22, null
  br i1 %23, label %24, label %29

24:                                               ; preds = %21
  %25 = load i32, ptr %8, align 4, !tbaa !23
  %26 = icmp ne i32 %25, 0
  br i1 %26, label %27, label %29

27:                                               ; preds = %24, %18
  %28 = load ptr, ptr %9, align 8, !tbaa !44
  store i32 1, ptr %28, align 4, !tbaa !45
  store i32 -1, ptr %5, align 4
  store i32 1, ptr %11, align 4
  br label %77

29:                                               ; preds = %24, %21
  %30 = load i32, ptr %8, align 4, !tbaa !23
  %31 = icmp eq i32 %30, 0
  br i1 %31, label %32, label %35

32:                                               ; preds = %29
  %33 = getelementptr inbounds nuw %struct.SRBRoot, ptr %12, i32 0, i32 10
  %34 = load i32, ptr %33, align 4, !tbaa !139
  store i32 %34, ptr %5, align 4
  store i32 1, ptr %11, align 4
  br label %77

35:                                               ; preds = %29
  %36 = getelementptr inbounds nuw %struct.SRBRoot, ptr %12, i32 0, i32 10
  %37 = load i32, ptr %36, align 4, !tbaa !139
  store i32 %37, ptr %10, align 4, !tbaa !23
  %38 = load i32, ptr %8, align 4, !tbaa !23
  %39 = getelementptr inbounds nuw %struct.SRBRoot, ptr %12, i32 0, i32 10
  %40 = load i32, ptr %39, align 4, !tbaa !139
  %41 = add nsw i32 %40, %38
  store i32 %41, ptr %39, align 4, !tbaa !139
  %42 = getelementptr inbounds nuw %struct.SRBRoot, ptr %12, i32 0, i32 10
  %43 = load i32, ptr %42, align 4, !tbaa !139
  %44 = getelementptr inbounds nuw %struct.SRBRoot, ptr %12, i32 0, i32 11
  %45 = load i32, ptr %44, align 8, !tbaa !204
  %46 = icmp sge i32 %43, %45
  br i1 %46, label %47, label %64

47:                                               ; preds = %35
  %48 = getelementptr inbounds nuw %struct.SRBRoot, ptr %12, i32 0, i32 11
  %49 = load i32, ptr %48, align 8, !tbaa !204
  %50 = add nsw i32 %49, 65536
  store i32 %50, ptr %48, align 8, !tbaa !204
  %51 = getelementptr inbounds nuw %struct.SRBRoot, ptr %12, i32 0, i32 7
  %52 = load ptr, ptr %51, align 8, !tbaa !64
  %53 = getelementptr inbounds nuw %struct.SRBRoot, ptr %12, i32 0, i32 11
  %54 = load i32, ptr %53, align 8, !tbaa !204
  %55 = sext i32 %54 to i64
  %56 = call ptr @uprv_realloc_77(ptr noundef %52, i64 noundef %55) #26
  %57 = getelementptr inbounds nuw %struct.SRBRoot, ptr %12, i32 0, i32 7
  store ptr %56, ptr %57, align 8, !tbaa !64
  %58 = getelementptr inbounds nuw %struct.SRBRoot, ptr %12, i32 0, i32 7
  %59 = load ptr, ptr %58, align 8, !tbaa !64
  %60 = icmp eq ptr %59, null
  br i1 %60, label %61, label %63

61:                                               ; preds = %47
  %62 = load ptr, ptr %9, align 8, !tbaa !44
  store i32 7, ptr %62, align 4, !tbaa !45
  store i32 -1, ptr %5, align 4
  store i32 1, ptr %11, align 4
  br label %77

63:                                               ; preds = %47
  br label %64

64:                                               ; preds = %63, %35
  br label %65

65:                                               ; preds = %64
  %66 = getelementptr inbounds nuw %struct.SRBRoot, ptr %12, i32 0, i32 7
  %67 = load ptr, ptr %66, align 8, !tbaa !64
  %68 = load i32, ptr %10, align 4, !tbaa !23
  %69 = sext i32 %68 to i64
  %70 = getelementptr inbounds i8, ptr %67, i64 %69
  %71 = load ptr, ptr %7, align 8, !tbaa !41
  %72 = load i32, ptr %8, align 4, !tbaa !23
  %73 = sext i32 %72 to i64
  call void @llvm.memcpy.p0.p0.i64(ptr align 1 %70, ptr align 1 %71, i64 %73, i1 false)
  br label %74

74:                                               ; preds = %65
  br label %75

75:                                               ; preds = %74
  %76 = load i32, ptr %10, align 4, !tbaa !23
  store i32 %76, ptr %5, align 4
  store i32 1, ptr %11, align 4
  br label %77

77:                                               ; preds = %75, %61, %32, %27, %17
  call void @llvm.lifetime.end.p0(i64 4, ptr %10) #3
  %78 = load i32, ptr %5, align 4
  ret i32 %78
}

; Function Attrs: inlinehint mustprogress nounwind uwtable
define internal noundef signext i8 @_ZL9U_FAILURE10UErrorCode(i32 noundef %0) #9 {
  %2 = alloca i32, align 4
  store i32 %0, ptr %2, align 4, !tbaa !45
  %3 = load i32, ptr %2, align 4, !tbaa !45
  %4 = icmp sgt i32 %3, 0
  %5 = zext i1 %4 to i8
  ret i8 %5
}

; Function Attrs: mustprogress uwtable
define dso_local noundef i32 @_ZN7SRBRoot6addTagEPKcR10UErrorCode(ptr noundef nonnull align 8 dereferenceable(176) %0, ptr noundef %1, ptr noundef nonnull align 4 dereferenceable(4) %2) #5 align 2 {
  %4 = alloca i32, align 4
  %5 = alloca ptr, align 8
  %6 = alloca ptr, align 8
  %7 = alloca ptr, align 8
  %8 = alloca i32, align 4
  %9 = alloca i32, align 4
  store ptr %0, ptr %5, align 8, !tbaa !39
  store ptr %1, ptr %6, align 8, !tbaa !41
  store ptr %2, ptr %7, align 8, !tbaa !44
  %10 = load ptr, ptr %5, align 8
  call void @llvm.lifetime.start.p0(i64 4, ptr %8) #3
  %11 = load ptr, ptr %7, align 8, !tbaa !44
  %12 = load i32, ptr %11, align 4, !tbaa !45
  %13 = call noundef signext i8 @_ZL9U_FAILURE10UErrorCode(i32 noundef %12)
  %14 = icmp ne i8 %13, 0
  br i1 %14, label %15, label %16

15:                                               ; preds = %3
  store i32 -1, ptr %4, align 4
  store i32 1, ptr %9, align 4
  br label %38

16:                                               ; preds = %3
  %17 = load ptr, ptr %6, align 8, !tbaa !41
  %18 = icmp eq ptr %17, null
  br i1 %18, label %19, label %20

19:                                               ; preds = %16
  store i32 -1, ptr %4, align 4
  store i32 1, ptr %9, align 4
  br label %38

20:                                               ; preds = %16
  %21 = load ptr, ptr %6, align 8, !tbaa !41
  %22 = load ptr, ptr %6, align 8, !tbaa !41
  %23 = call i64 @strlen(ptr noundef %22) #22
  %24 = add i64 %23, 1
  %25 = trunc i64 %24 to i32
  %26 = load ptr, ptr %7, align 8, !tbaa !44
  %27 = call noundef i32 @_ZN7SRBRoot11addKeyBytesEPKciR10UErrorCode(ptr noundef nonnull align 8 dereferenceable(176) %10, ptr noundef %21, i32 noundef %25, ptr noundef nonnull align 4 dereferenceable(4) %26)
  store i32 %27, ptr %8, align 4, !tbaa !23
  %28 = load ptr, ptr %7, align 8, !tbaa !44
  %29 = load i32, ptr %28, align 4, !tbaa !45
  %30 = call noundef signext i8 @_ZL9U_SUCCESS10UErrorCode(i32 noundef %29)
  %31 = icmp ne i8 %30, 0
  br i1 %31, label %32, label %36

32:                                               ; preds = %20
  %33 = getelementptr inbounds nuw %struct.SRBRoot, ptr %10, i32 0, i32 12
  %34 = load i32, ptr %33, align 4, !tbaa !47
  %35 = add nsw i32 %34, 1
  store i32 %35, ptr %33, align 4, !tbaa !47
  br label %36

36:                                               ; preds = %32, %20
  %37 = load i32, ptr %8, align 4, !tbaa !23
  store i32 %37, ptr %4, align 4
  store i32 1, ptr %9, align 4
  br label %38

38:                                               ; preds = %36, %19, %15
  call void @llvm.lifetime.end.p0(i64 4, ptr %8) #3
  %39 = load i32, ptr %4, align 4
  ret i32 %39
}

; Function Attrs: inlinehint mustprogress nounwind uwtable
define linkonce_odr dso_local void @_ZN6icu_7714ConstChar16PtrD2Ev(ptr noundef nonnull align 8 dereferenceable(8) %0) unnamed_addr #9 comdat align 2 {
  %2 = alloca ptr, align 8
  store ptr %0, ptr %2, align 8, !tbaa !76
  %3 = load ptr, ptr %2, align 8
  %4 = getelementptr inbounds nuw %"class.icu_77::ConstChar16Ptr", ptr %3, i32 0, i32 0
  %5 = load ptr, ptr %4, align 8, !tbaa !78
  call void asm sideeffect "", "rm,~{memory},~{dirflag},~{fpsr},~{flags}"(ptr %5) #3, !srcloc !80
  ret void
}

; Function Attrs: inlinehint mustprogress nounwind uwtable
define linkonce_odr dso_local void @_ZN6icu_7714ConstChar16PtrC2EPKDs(ptr noundef nonnull align 8 dereferenceable(8) %0, ptr noundef %1) unnamed_addr #9 comdat align 2 {
  %3 = alloca ptr, align 8
  %4 = alloca ptr, align 8
  store ptr %0, ptr %3, align 8, !tbaa !76
  store ptr %1, ptr %4, align 8, !tbaa !73
  %5 = load ptr, ptr %3, align 8
  %6 = getelementptr inbounds nuw %"class.icu_77::ConstChar16Ptr", ptr %5, i32 0, i32 0
  %7 = load ptr, ptr %4, align 8, !tbaa !73
  store ptr %7, ptr %6, align 8, !tbaa !78
  ret void
}

; Function Attrs: mustprogress uwtable
define dso_local void @_ZN9SResourceC2EP7SRBRootPKcaPK7UStringR10UErrorCode(ptr noundef nonnull align 8 dereferenceable(56) %0, ptr noundef %1, ptr noundef %2, i8 noundef signext %3, ptr noundef %4, ptr noundef nonnull align 4 dereferenceable(4) %5) unnamed_addr #5 align 2 {
  %7 = alloca ptr, align 8
  %8 = alloca ptr, align 8
  %9 = alloca ptr, align 8
  %10 = alloca i8, align 1
  %11 = alloca ptr, align 8
  %12 = alloca ptr, align 8
  store ptr %0, ptr %7, align 8, !tbaa !24
  store ptr %1, ptr %8, align 8, !tbaa !39
  store ptr %2, ptr %9, align 8, !tbaa !41
  store i8 %3, ptr %10, align 1, !tbaa !22
  store ptr %4, ptr %11, align 8, !tbaa !42
  store ptr %5, ptr %12, align 8, !tbaa !44
  %13 = load ptr, ptr %7, align 8
  store ptr getelementptr inbounds inrange(-16, 64) ({ [10 x ptr] }, ptr @_ZTV9SResource, i32 0, i32 0, i32 2), ptr %13, align 8, !tbaa !26
  %14 = getelementptr inbounds nuw %struct.SResource, ptr %13, i32 0, i32 1
  %15 = load i8, ptr %10, align 1, !tbaa !22
  store i8 %15, ptr %14, align 8, !tbaa !28
  %16 = getelementptr inbounds nuw %struct.SResource, ptr %13, i32 0, i32 2
  store i8 0, ptr %16, align 1, !tbaa !32
  %17 = getelementptr inbounds nuw %struct.SResource, ptr %13, i32 0, i32 3
  store i32 -1, ptr %17, align 4, !tbaa !33
  %18 = getelementptr inbounds nuw %struct.SResource, ptr %13, i32 0, i32 4
  store i32 -1, ptr %18, align 8, !tbaa !34
  %19 = getelementptr inbounds nuw %struct.SResource, ptr %13, i32 0, i32 5
  %20 = load ptr, ptr %8, align 8, !tbaa !39
  %21 = icmp ne ptr %20, null
  br i1 %21, label %22, label %27

22:                                               ; preds = %6
  %23 = load ptr, ptr %8, align 8, !tbaa !39
  %24 = load ptr, ptr %9, align 8, !tbaa !41
  %25 = load ptr, ptr %12, align 8, !tbaa !44
  %26 = call noundef i32 @_ZN7SRBRoot6addTagEPKcR10UErrorCode(ptr noundef nonnull align 8 dereferenceable(176) %23, ptr noundef %24, ptr noundef nonnull align 4 dereferenceable(4) %25)
  br label %28

27:                                               ; preds = %6
  br label %28

28:                                               ; preds = %27, %22
  %29 = phi i32 [ %26, %22 ], [ -1, %27 ]
  store i32 %29, ptr %19, align 4, !tbaa !35
  %30 = getelementptr inbounds nuw %struct.SResource, ptr %13, i32 0, i32 6
  store i32 -1, ptr %30, align 8, !tbaa !36
  %31 = getelementptr inbounds nuw %struct.SResource, ptr %13, i32 0, i32 7
  store i32 0, ptr %31, align 4, !tbaa !37
  %32 = getelementptr inbounds nuw %struct.SResource, ptr %13, i32 0, i32 8
  store ptr null, ptr %32, align 8, !tbaa !38
  %33 = getelementptr inbounds nuw %struct.SResource, ptr %13, i32 0, i32 9
  call void @ustr_init(ptr noundef %33)
  %34 = load ptr, ptr %11, align 8, !tbaa !42
  %35 = icmp ne ptr %34, null
  br i1 %35, label %36, label %40

36:                                               ; preds = %28
  %37 = getelementptr inbounds nuw %struct.SResource, ptr %13, i32 0, i32 9
  %38 = load ptr, ptr %11, align 8, !tbaa !42
  %39 = load ptr, ptr %12, align 8, !tbaa !44
  call void @ustr_cpy(ptr noundef %37, ptr noundef %38, ptr noundef %39)
  br label %40

40:                                               ; preds = %36, %28
  ret void
}

; Function Attrs: mustprogress uwtable
define dso_local void @_ZN18StringBaseResourceC2EaPKDsiR10UErrorCode(ptr noundef nonnull align 8 dereferenceable(120) %0, i8 noundef signext %1, ptr noundef %2, i32 noundef %3, ptr noundef nonnull align 4 dereferenceable(4) %4) unnamed_addr #5 align 2 personality ptr @__gxx_personality_v0 {
  %6 = alloca ptr, align 8
  %7 = alloca i8, align 1
  %8 = alloca ptr, align 8
  %9 = alloca i32, align 4
  %10 = alloca ptr, align 8
  %11 = alloca %"class.icu_77::ConstChar16Ptr", align 8
  %12 = alloca ptr, align 8
  %13 = alloca i32, align 4
  store ptr %0, ptr %6, align 8, !tbaa !71
  store i8 %1, ptr %7, align 1, !tbaa !22
  store ptr %2, ptr %8, align 8, !tbaa !73
  store i32 %3, ptr %9, align 4, !tbaa !23
  store ptr %4, ptr %10, align 8, !tbaa !44
  %14 = load ptr, ptr %6, align 8
  %15 = load i8, ptr %7, align 1, !tbaa !22
  %16 = load ptr, ptr %10, align 8, !tbaa !44
  call void @_ZN9SResourceC2EP7SRBRootPKcaPK7UStringR10UErrorCode(ptr noundef nonnull align 8 dereferenceable(56) %14, ptr noundef null, ptr noundef null, i8 noundef signext %15, ptr noundef null, ptr noundef nonnull align 4 dereferenceable(4) %16)
  store ptr getelementptr inbounds inrange(-16, 64) ({ [10 x ptr] }, ptr @_ZTV18StringBaseResource, i32 0, i32 0, i32 2), ptr %14, align 8, !tbaa !26
  %17 = getelementptr inbounds nuw %class.StringBaseResource, ptr %14, i32 0, i32 1
  %18 = load ptr, ptr %8, align 8, !tbaa !73
  invoke void @_ZN6icu_7714ConstChar16PtrC2EPKDs(ptr noundef nonnull align 8 dereferenceable(8) %11, ptr noundef %18)
          to label %19 unwind label %22

19:                                               ; preds = %5
  %20 = load i32, ptr %9, align 4, !tbaa !23
  invoke void @_ZN6icu_7713UnicodeStringC1EaNS_14ConstChar16PtrEi(ptr noundef nonnull align 8 dereferenceable(64) %17, i8 noundef signext 1, ptr noundef %11, i32 noundef %20)
          to label %21 unwind label %26

21:                                               ; preds = %19
  call void @_ZN6icu_7714ConstChar16PtrD2Ev(ptr noundef nonnull align 8 dereferenceable(8) %11) #3
  ret void

22:                                               ; preds = %5
  %23 = landingpad { ptr, i32 }
          cleanup
  %24 = extractvalue { ptr, i32 } %23, 0
  store ptr %24, ptr %12, align 8
  %25 = extractvalue { ptr, i32 } %23, 1
  store i32 %25, ptr %13, align 4
  br label %30

26:                                               ; preds = %19
  %27 = landingpad { ptr, i32 }
          cleanup
  %28 = extractvalue { ptr, i32 } %27, 0
  store ptr %28, ptr %12, align 8
  %29 = extractvalue { ptr, i32 } %27, 1
  store i32 %29, ptr %13, align 4
  call void @_ZN6icu_7714ConstChar16PtrD2Ev(ptr noundef nonnull align 8 dereferenceable(8) %11) #3
  br label %30

30:                                               ; preds = %26, %22
  call void @_ZN9SResourceD2Ev(ptr noundef nonnull align 8 dereferenceable(56) %14) #3
  br label %31

31:                                               ; preds = %30
  %32 = load ptr, ptr %12, align 8
  %33 = load i32, ptr %13, align 4
  %34 = insertvalue { ptr, i32 } poison, ptr %32, 0
  %35 = insertvalue { ptr, i32 } %34, i32 %33, 1
  resume { ptr, i32 } %35
}