; Function Attrs: mustprogress uwtable
define dso_local void @_ZN18StringBaseResourceC2EaPKDsiR10UErrorCode(ptr noundef nonnull align 8 dereferenceable(120) initializes((0, 10), (12, 40)) %0, i8 noundef signext %1, ptr noundef %2, i32 noundef %3, ptr nonnull readnone align 4 captures(none) %4) unnamed_addr #7 align 2 personality ptr @__gxx_personality_v0 {
  %6 = alloca %"class.icu_77::ConstChar16Ptr", align 8
  store ptr getelementptr inbounds nuw inrange(-16, 64) (i8, ptr @_ZTV9SResource, i64 16), ptr %0, align 8, !tbaa !9
  %7 = getelementptr inbounds nuw i8, ptr %0, i64 8
  store i8 %1, ptr %7, align 8, !tbaa !11
  %8 = getelementptr inbounds nuw i8, ptr %0, i64 9
  store i8 0, ptr %8, align 1, !tbaa !17
  %9 = getelementptr inbounds nuw i8, ptr %0, i64 12
  %10 = getelementptr inbounds nuw i8, ptr %0, i64 28
  tail call void @llvm.memset.p0.i64(ptr noundef nonnull align 4 dereferenceable(16) %9, i8 -1, i64 16, i1 false)
  store i32 0, ptr %10, align 4, !tbaa !18
  %11 = getelementptr inbounds nuw i8, ptr %0, i64 32
  store ptr null, ptr %11, align 8, !tbaa !19
  %12 = getelementptr inbounds nuw i8, ptr %0, i64 40
  tail call void @ustr_init(ptr noundef nonnull %12)
  store ptr getelementptr inbounds nuw inrange(-16, 64) (i8, ptr @_ZTV18StringBaseResource, i64 16), ptr %0, align 8, !tbaa !9
  %13 = getelementptr inbounds nuw i8, ptr %0, i64 56
  store ptr %2, ptr %6, align 8, !tbaa !49
  invoke void @_ZN6icu_7713UnicodeStringC1EaNS_14ConstChar16PtrEi(ptr noundef nonnull align 8 dereferenceable(64) %13, i8 noundef signext 1, ptr noundef nonnull %6, i32 noundef %3)
          to label %14 unwind label %16

14:                                               ; preds = %5
  %15 = load ptr, ptr %6, align 8, !tbaa !49
  call void asm sideeffect "", "rm,~{memory},~{dirflag},~{fpsr},~{flags}"(ptr %15) #34, !srcloc !48
  ret void

16:                                               ; preds = %5
  %17 = landingpad { ptr, i32 }
          cleanup
  %18 = load ptr, ptr %6, align 8, !tbaa !49
  call void asm sideeffect "", "rm,~{memory},~{dirflag},~{fpsr},~{flags}"(ptr %18) #34, !srcloc !48
  call void @_ZN9SResourceD2Ev(ptr noundef nonnull align 8 dereferenceable(56) %0) #34
  resume { ptr, i32 } %17
}